target datalayout = "e-m:e-p270:32:32-p271:32:32-p272:64:64-i64:64-i128:128-f80:128-n8:16:32:64-S128"
target triple = "x86_64-pc-linux-gnu"

%"struct.Luau::CodeGen::NativeContext" = type { ptr, ptr, ptr, ptr, ptr, ptr, ptr, ptr, ptr, ptr, ptr, ptr, ptr, ptr, ptr, ptr, ptr, ptr, ptr, ptr, ptr, ptr, ptr, ptr, ptr, ptr, ptr, ptr, ptr, ptr, ptr, ptr, ptr, ptr, ptr, ptr, ptr, ptr, ptr, ptr, ptr, ptr, ptr, ptr, ptr, ptr, ptr, ptr, ptr, ptr, ptr, ptr, ptr, ptr, ptr, ptr, ptr, ptr, ptr, ptr, ptr, ptr, ptr, ptr, ptr, ptr, ptr, ptr, ptr, ptr, ptr, [256 x ptr] }

@luauF_table = external constant [256 x ptr], align 16

; Function Attrs: mustprogress nounwind uwtable
define dso_local void @_ZN4Luau7CodeGen13initFunctionsERNS0_13NativeContextE(ptr noundef nonnull align 8 dereferenceable(2616) %0) #0 {
  %2 = alloca ptr, align 8
  store ptr %0, ptr %2, align 8, !tbaa !4
  %3 = load ptr, ptr %2, align 8, !tbaa !4
  %4 = getelementptr inbounds nuw %"struct.Luau::CodeGen::NativeContext", ptr %3, i32 0, i32 71
  %5 = getelementptr inbounds [256 x ptr], ptr %4, i64 0, i64 0
  call void @llvm.memcpy.p0.p0.i64(ptr align 8 %5, ptr align 16 @luauF_table, i64 2048, i1 false)
  %6 = load ptr, ptr %2, align 8, !tbaa !4
  %7 = getelementptr inbounds nuw %"struct.Luau::CodeGen::NativeContext", ptr %6, i32 0, i32 2
  store ptr @_Z13luaV_lessthanP9lua_StatePK10lua_TValueS3_, ptr %7, align 8, !tbaa !9
  %8 = load ptr, ptr %2, align 8, !tbaa !4
  %9 = getelementptr inbounds nuw %"struct.Luau::CodeGen::NativeContext", ptr %8, i32 0, i32 3
  store ptr @_Z14luaV_lessequalP9lua_StatePK10lua_TValueS3_, ptr %9, align 8, !tbaa !12
  %10 = load ptr, ptr %2, align 8, !tbaa !4
  %11 = getelementptr inbounds nuw %"struct.Luau::CodeGen::NativeContext", ptr %10, i32 0, i32 4
  store ptr @_Z13luaV_equalvalP9lua_StatePK10lua_TValueS3_, ptr %11, align 8, !tbaa !13
  %12 = load ptr, ptr %2, align 8, !tbaa !4
  %13 = getelementptr inbounds nuw %"struct.Luau::CodeGen::NativeContext", ptr %12, i32 0, i32 5
  store ptr @_Z16luaV_doarithimplIL3TMS8EEvP9lua_StateP10lua_TValuePKS3_S6_, ptr %13, align 8, !tbaa !14
  %14 = load ptr, ptr %2, align 8, !tbaa !4
  %15 = getelementptr inbounds nuw %"struct.Luau::CodeGen::NativeContext", ptr %14, i32 0, i32 6
  store ptr @_Z16luaV_doarithimplIL3TMS9EEvP9lua_StateP10lua_TValuePKS3_S6_, ptr %15, align 8, !tbaa !15
  %16 = load ptr, ptr %2, align 8, !tbaa !4
  %17 = getelementptr inbounds nuw %"struct.Luau::CodeGen::NativeContext", ptr %16, i32 0, i32 7
  store ptr @_Z16luaV_doarithimplIL3TMS10EEvP9lua_StateP10lua_TValuePKS3_S6_, ptr %17, align 8, !tbaa !16
  %18 = load ptr, ptr %2, align 8, !tbaa !4
  %19 = getelementptr inbounds nuw %"struct.Luau::CodeGen::NativeContext", ptr %18, i32 0, i32 8
  store ptr @_Z16luaV_doarithimplIL3TMS11EEvP9lua_StateP10lua_TValuePKS3_S6_, ptr %19, align 8, !tbaa !17
  %20 = load ptr, ptr %2, align 8, !tbaa !4
  %21 = getelementptr inbounds nuw %"struct.Luau::CodeGen::NativeContext", ptr %20, i32 0, i32 9
  store ptr @_Z16luaV_doarithimplIL3TMS12EEvP9lua_StateP10lua_TValuePKS3_S6_, ptr %21, align 8, !tbaa !18
  %22 = load ptr, ptr %2, align 8, !tbaa !4
  %23 = getelementptr inbounds nuw %"struct.Luau::CodeGen::NativeContext", ptr %22, i32 0, i32 10
  store ptr @_Z16luaV_doarithimplIL3TMS13EEvP9lua_StateP10lua_TValuePKS3_S6_, ptr %23, align 8, !tbaa !19
  %24 = load ptr, ptr %2, align 8, !tbaa !4
  %25 = getelementptr inbounds nuw %"struct.Luau::CodeGen::NativeContext", ptr %24, i32 0, i32 11
  store ptr @_Z16luaV_doarithimplIL3TMS14EEvP9lua_StateP10lua_TValuePKS3_S6_, ptr %25, align 8, !tbaa !20
  %26 = load ptr, ptr %2, align 8, !tbaa !4
  %27 = getelementptr inbounds nuw %"struct.Luau::CodeGen::NativeContext", ptr %26, i32 0, i32 12
  store ptr @_Z16luaV_doarithimplIL3TMS15EEvP9lua_StateP10lua_TValuePKS3_S6_, ptr %27, align 8, !tbaa !21
  %28 = load ptr, ptr %2, align 8, !tbaa !4
  %29 = getelementptr inbounds nuw %"struct.Luau::CodeGen::NativeContext", ptr %28, i32 0, i32 13
  store ptr @_Z10luaV_dolenP9lua_StateP10lua_TValuePKS1_, ptr %29, align 8, !tbaa !22
  %30 = load ptr, ptr %2, align 8, !tbaa !4
  %31 = getelementptr inbounds nuw %"struct.Luau::CodeGen::NativeContext", ptr %30, i32 0, i32 14
  store ptr @_Z13luaV_gettableP9lua_StatePK10lua_TValuePS1_S4_, ptr %31, align 8, !tbaa !23
  %32 = load ptr, ptr %2, align 8, !tbaa !4
  %33 = getelementptr inbounds nuw %"struct.Luau::CodeGen::NativeContext", ptr %32, i32 0, i32 15
  store ptr @_Z13luaV_settableP9lua_StatePK10lua_TValuePS1_S4_, ptr %33, align 8, !tbaa !24
  %34 = load ptr, ptr %2, align 8, !tbaa !4
  %35 = getelementptr inbounds nuw %"struct.Luau::CodeGen::NativeContext", ptr %34, i32 0, i32 16
  store ptr @_Z14luaV_getimportP9lua_StateP8LuaTableP10lua_TValueS4_jb, ptr %35, align 8, !tbaa !25
  %36 = load ptr, ptr %2, align 8, !tbaa !4
  %37 = getelementptr inbounds nuw %"struct.Luau::CodeGen::NativeContext", ptr %36, i32 0, i32 17
  store ptr @_Z11luaV_concatP9lua_Stateii, ptr %37, align 8, !tbaa !26
  %38 = load ptr, ptr %2, align 8, !tbaa !4
  %39 = getelementptr inbounds nuw %"struct.Luau::CodeGen::NativeContext", ptr %38, i32 0, i32 18
  store ptr @_Z9luaH_getnP8LuaTable, ptr %39, align 8, !tbaa !27
  %40 = load ptr, ptr %2, align 8, !tbaa !4
  %41 = getelementptr inbounds nuw %"struct.Luau::CodeGen::NativeContext", ptr %40, i32 0, i32 19
  store ptr @_Z8luaH_newP9lua_Stateii, ptr %41, align 8, !tbaa !28
  %42 = load ptr, ptr %2, align 8, !tbaa !4
  %43 = getelementptr inbounds nuw %"struct.Luau::CodeGen::NativeContext", ptr %42, i32 0, i32 20
  store ptr @_Z10luaH_cloneP9lua_StateP8LuaTable, ptr %43, align 8, !tbaa !29
  %44 = load ptr, ptr %2, align 8, !tbaa !4
  %45 = getelementptr inbounds nuw %"struct.Luau::CodeGen::NativeContext", ptr %44, i32 0, i32 21
  store ptr @_Z16luaH_resizearrayP9lua_StateP8LuaTablei, ptr %45, align 8, !tbaa !30
  %46 = load ptr, ptr %2, align 8, !tbaa !4
  %47 = getelementptr inbounds nuw %"struct.Luau::CodeGen::NativeContext", ptr %46, i32 0, i32 22
  store ptr @_Z11luaH_setnumP9lua_StateP8LuaTablei, ptr %47, align 8, !tbaa !31
  %48 = load ptr, ptr %2, align 8, !tbaa !4
  %49 = getelementptr inbounds nuw %"struct.Luau::CodeGen::NativeContext", ptr %48, i32 0, i32 23
  store ptr @_Z17luaC_barriertableP9lua_StateP8LuaTableP8GCObject, ptr %49, align 8, !tbaa !32
  %50 = load ptr, ptr %2, align 8, !tbaa !4
  %51 = getelementptr inbounds nuw %"struct.Luau::CodeGen::NativeContext", ptr %50, i32 0, i32 24
  store ptr @_Z13luaC_barrierfP9lua_StateP8GCObjectS2_, ptr %51, align 8, !tbaa !33
  %52 = load ptr, ptr %2, align 8, !tbaa !4
  %53 = getelementptr inbounds nuw %"struct.Luau::CodeGen::NativeContext", ptr %52, i32 0, i32 25
  store ptr @_Z16luaC_barrierbackP9lua_StateP8GCObjectPS2_, ptr %53, align 8, !tbaa !34
  %54 = load ptr, ptr %2, align 8, !tbaa !4
  %55 = getelementptr inbounds nuw %"struct.Luau::CodeGen::NativeContext", ptr %54, i32 0, i32 26
  store ptr @_Z9luaC_stepP9lua_Stateb, ptr %55, align 8, !tbaa !35
  %56 = load ptr, ptr %2, align 8, !tbaa !4
  %57 = getelementptr inbounds nuw %"struct.Luau::CodeGen::NativeContext", ptr %56, i32 0, i32 27
  store ptr @_Z10luaF_closeP9lua_StateP10lua_TValue, ptr %57, align 8, !tbaa !36
  %58 = load ptr, ptr %2, align 8, !tbaa !4
  %59 = getelementptr inbounds nuw %"struct.Luau::CodeGen::NativeContext", ptr %58, i32 0, i32 28
  store ptr @_Z14luaF_findupvalP9lua_StateP10lua_TValue, ptr %59, align 8, !tbaa !37
  %60 = load ptr, ptr %2, align 8, !tbaa !4
  %61 = getelementptr inbounds nuw %"struct.Luau::CodeGen::NativeContext", ptr %60, i32 0, i32 29
  store ptr @_Z16luaF_newLclosureP9lua_StateiP8LuaTableP5Proto, ptr %61, align 8, !tbaa !38
  %62 = load ptr, ptr %2, align 8, !tbaa !4
  %63 = getelementptr inbounds nuw %"struct.Luau::CodeGen::NativeContext", ptr %62, i32 0, i32 30
  store ptr @_Z10luaT_gettmP8LuaTable3TMSP7TString, ptr %63, align 8, !tbaa !39
  %64 = load ptr, ptr %2, align 8, !tbaa !4
  %65 = getelementptr inbounds nuw %"struct.Luau::CodeGen::NativeContext", ptr %64, i32 0, i32 31
  store ptr @_Z19luaT_objtypenamestrP9lua_StatePK10lua_TValue, ptr %65, align 8, !tbaa !40
  %66 = load ptr, ptr %2, align 8, !tbaa !4
  %67 = getelementptr inbounds nuw %"struct.Luau::CodeGen::NativeContext", ptr %66, i32 0, i32 32
  store ptr @exp, ptr %67, align 8, !tbaa !41
  %68 = load ptr, ptr %2, align 8, !tbaa !4
  %69 = getelementptr inbounds nuw %"struct.Luau::CodeGen::NativeContext", ptr %68, i32 0, i32 33
  store ptr @pow, ptr %69, align 8, !tbaa !42
  %70 = load ptr, ptr %2, align 8, !tbaa !4
  %71 = getelementptr inbounds nuw %"struct.Luau::CodeGen::NativeContext", ptr %70, i32 0, i32 34
  store ptr @fmod, ptr %71, align 8, !tbaa !43
  %72 = load ptr, ptr %2, align 8, !tbaa !4
  %73 = getelementptr inbounds nuw %"struct.Luau::CodeGen::NativeContext", ptr %72, i32 0, i32 45
  store ptr @log, ptr %73, align 8, !tbaa !44
  %74 = load ptr, ptr %2, align 8, !tbaa !4
  %75 = getelementptr inbounds nuw %"struct.Luau::CodeGen::NativeContext", ptr %74, i32 0, i32 46
  store ptr @log2, ptr %75, align 8, !tbaa !45
  %76 = load ptr, ptr %2, align 8, !tbaa !4
  %77 = getelementptr inbounds nuw %"struct.Luau::CodeGen::NativeContext", ptr %76, i32 0, i32 47
  store ptr @log10, ptr %77, align 8, !tbaa !46
  %78 = load ptr, ptr %2, align 8, !tbaa !4
  %79 = getelementptr inbounds nuw %"struct.Luau::CodeGen::NativeContext", ptr %78, i32 0, i32 48
  store ptr @ldexp, ptr %79, align 8, !tbaa !47
  %80 = load ptr, ptr %2, align 8, !tbaa !4
  %81 = getelementptr inbounds nuw %"struct.Luau::CodeGen::NativeContext", ptr %80, i32 0, i32 49
  store ptr @round, ptr %81, align 8, !tbaa !48
  %82 = load ptr, ptr %2, align 8, !tbaa !4
  %83 = getelementptr inbounds nuw %"struct.Luau::CodeGen::NativeContext", ptr %82, i32 0, i32 50
  store ptr @frexp, ptr %83, align 8, !tbaa !49
  %84 = load ptr, ptr %2, align 8, !tbaa !4
  %85 = getelementptr inbounds nuw %"struct.Luau::CodeGen::NativeContext", ptr %84, i32 0, i32 51
  store ptr @modf, ptr %85, align 8, !tbaa !50
  %86 = load ptr, ptr %2, align 8, !tbaa !4
  %87 = getelementptr inbounds nuw %"struct.Luau::CodeGen::NativeContext", ptr %86, i32 0, i32 35
  store ptr @asin, ptr %87, align 8, !tbaa !51
  %88 = load ptr, ptr %2, align 8, !tbaa !4
  %89 = getelementptr inbounds nuw %"struct.Luau::CodeGen::NativeContext", ptr %88, i32 0, i32 36
  store ptr @sin, ptr %89, align 8, !tbaa !52
  %90 = load ptr, ptr %2, align 8, !tbaa !4
  %91 = getelementptr inbounds nuw %"struct.Luau::CodeGen::NativeContext", ptr %90, i32 0, i32 37
  store ptr @sinh, ptr %91, align 8, !tbaa !53
  %92 = load ptr, ptr %2, align 8, !tbaa !4
  %93 = getelementptr inbounds nuw %"struct.Luau::CodeGen::NativeContext", ptr %92, i32 0, i32 38
  store ptr @acos, ptr %93, align 8, !tbaa !54
  %94 = load ptr, ptr %2, align 8, !tbaa !4
  %95 = getelementptr inbounds nuw %"struct.Luau::CodeGen::NativeContext", ptr %94, i32 0, i32 39
  store ptr @cos, ptr %95, align 8, !tbaa !55
  %96 = load ptr, ptr %2, align 8, !tbaa !4
  %97 = getelementptr inbounds nuw %"struct.Luau::CodeGen::NativeContext", ptr %96, i32 0, i32 40
  store ptr @cosh, ptr %97, align 8, !tbaa !56
  %98 = load ptr, ptr %2, align 8, !tbaa !4
  %99 = getelementptr inbounds nuw %"struct.Luau::CodeGen::NativeContext", ptr %98, i32 0, i32 41
  store ptr @atan, ptr %99, align 8, !tbaa !57
  %100 = load ptr, ptr %2, align 8, !tbaa !4
  %101 = getelementptr inbounds nuw %"struct.Luau::CodeGen::NativeContext", ptr %100, i32 0, i32 42
  store ptr @atan2, ptr %101, align 8, !tbaa !58
  %102 = load ptr, ptr %2, align 8, !tbaa !4
  %103 = getelementptr inbounds nuw %"struct.Luau::CodeGen::NativeContext", ptr %102, i32 0, i32 43
  store ptr @tan, ptr %103, align 8, !tbaa !59
  %104 = load ptr, ptr %2, align 8, !tbaa !4
  %105 = getelementptr inbounds nuw %"struct.Luau::CodeGen::NativeContext", ptr %104, i32 0, i32 44
  store ptr @tanh, ptr %105, align 8, !tbaa !60
  %106 = load ptr, ptr %2, align 8, !tbaa !4
  %107 = getelementptr inbounds nuw %"struct.Luau::CodeGen::NativeContext", ptr %106, i32 0, i32 52
  store ptr @_ZN4Luau7CodeGen17forgLoopTableIterEP9lua_StateP8LuaTableiP10lua_TValue, ptr %107, align 8, !tbaa !61
  %108 = load ptr, ptr %2, align 8, !tbaa !4
  %109 = getelementptr inbounds nuw %"struct.Luau::CodeGen::NativeContext", ptr %108, i32 0, i32 53
  store ptr @_ZN4Luau7CodeGen16forgLoopNodeIterEP9lua_StateP8LuaTableiP10lua_TValue, ptr %109, align 8, !tbaa !62
  %110 = load ptr, ptr %2, align 8, !tbaa !4
  %111 = getelementptr inbounds nuw %"struct.Luau::CodeGen::NativeContext", ptr %110, i32 0, i32 54
  store ptr @_ZN4Luau7CodeGen24forgLoopNonTableFallbackEP9lua_Stateii, ptr %111, align 8, !tbaa !63
  %112 = load ptr, ptr %2, align 8, !tbaa !4
  %113 = getelementptr inbounds nuw %"struct.Luau::CodeGen::NativeContext", ptr %112, i32 0, i32 55
  store ptr @_ZN4Luau7CodeGen21forgPrepXnextFallbackEP9lua_StateP10lua_TValuei, ptr %113, align 8, !tbaa !64
  %114 = load ptr, ptr %2, align 8, !tbaa !4
  %115 = getelementptr inbounds nuw %"struct.Luau::CodeGen::NativeContext", ptr %114, i32 0, i32 56
  store ptr @_ZN4Luau7CodeGen10callPrologEP9lua_StateP10lua_TValueS4_i, ptr %115, align 8, !tbaa !65
  %116 = load ptr, ptr %2, align 8, !tbaa !4
  %117 = getelementptr inbounds nuw %"struct.Luau::CodeGen::NativeContext", ptr %116, i32 0, i32 57
  store ptr @_ZN4Luau7CodeGen11callEpilogCEP9lua_Stateii, ptr %117, align 8, !tbaa !66
  %118 = load ptr, ptr %2, align 8, !tbaa !4
  %119 = getelementptr inbounds nuw %"struct.Luau::CodeGen::NativeContext", ptr %118, i32 0, i32 58
  store ptr @_ZN4Luau7CodeGen11newUserdataEP9lua_Statemi, ptr %119, align 8, !tbaa !67
  %120 = load ptr, ptr %2, align 8, !tbaa !4
  %121 = getelementptr inbounds nuw %"struct.Luau::CodeGen::NativeContext", ptr %120, i32 0, i32 59
  store ptr @_ZN4Luau7CodeGen12callFallbackEP9lua_StateP10lua_TValueS4_i, ptr %121, align 8, !tbaa !68
  %122 = load ptr, ptr %2, align 8, !tbaa !4
  %123 = getelementptr inbounds nuw %"struct.Luau::CodeGen::NativeContext", ptr %122, i32 0, i32 60
  store ptr @_ZN4Luau7CodeGen16executeGETGLOBALEP9lua_StatePKjP10lua_TValueS6_, ptr %123, align 8, !tbaa !69
  %124 = load ptr, ptr %2, align 8, !tbaa !4
  %125 = getelementptr inbounds nuw %"struct.Luau::CodeGen::NativeContext", ptr %124, i32 0, i32 61
  store ptr @_ZN4Luau7CodeGen16executeSETGLOBALEP9lua_StatePKjP10lua_TValueS6_, ptr %125, align 8, !tbaa !70
  %126 = load ptr, ptr %2, align 8, !tbaa !4
  %127 = getelementptr inbounds nuw %"struct.Luau::CodeGen::NativeContext", ptr %126, i32 0, i32 62
  store ptr @_ZN4Luau7CodeGen17executeGETTABLEKSEP9lua_StatePKjP10lua_TValueS6_, ptr %127, align 8, !tbaa !71
  %128 = load ptr, ptr %2, align 8, !tbaa !4
  %129 = getelementptr inbounds nuw %"struct.Luau::CodeGen::NativeContext", ptr %128, i32 0, i32 63
  store ptr @_ZN4Luau7CodeGen17executeSETTABLEKSEP9lua_StatePKjP10lua_TValueS6_, ptr %129, align 8, !tbaa !72
  %130 = load ptr, ptr %2, align 8, !tbaa !4
  %131 = getelementptr inbounds nuw %"struct.Luau::CodeGen::NativeContext", ptr %130, i32 0, i32 64
  store ptr @_ZN4Luau7CodeGen15executeNAMECALLEP9lua_StatePKjP10lua_TValueS6_, ptr %131, align 8, !tbaa !73
  %132 = load ptr, ptr %2, align 8, !tbaa !4
  %133 = getelementptr inbounds nuw %"struct.Luau::CodeGen::NativeContext", ptr %132, i32 0, i32 66
  store ptr @_ZN4Luau7CodeGen15executeFORGPREPEP9lua_StatePKjP10lua_TValueS6_, ptr %133, align 8, !tbaa !74
  %134 = load ptr, ptr %2, align 8, !tbaa !4
  %135 = getelementptr inbounds nuw %"struct.Luau::CodeGen::NativeContext", ptr %134, i32 0, i32 67
  store ptr @_ZN4Luau7CodeGen24executeGETVARARGSMultRetEP9lua_StatePKjP10lua_TValuei, ptr %135, align 8, !tbaa !75
  %136 = load ptr, ptr %2, align 8, !tbaa !4
  %137 = getelementptr inbounds nuw %"struct.Luau::CodeGen::NativeContext", ptr %136, i32 0, i32 68
  store ptr @_ZN4Luau7CodeGen22executeGETVARARGSConstEP9lua_StateP10lua_TValueii, ptr %137, align 8, !tbaa !76
  %138 = load ptr, ptr %2, align 8, !tbaa !4
  %139 = getelementptr inbounds nuw %"struct.Luau::CodeGen::NativeContext", ptr %138, i32 0, i32 69
  store ptr @_ZN4Luau7CodeGen17executeDUPCLOSUREEP9lua_StatePKjP10lua_TValueS6_, ptr %139, align 8, !tbaa !77
  %140 = load ptr, ptr %2, align 8, !tbaa !4
  %141 = getelementptr inbounds nuw %"struct.Luau::CodeGen::NativeContext", ptr %140, i32 0, i32 70
  store ptr @_ZN4Luau7CodeGen18executePREPVARARGSEP9lua_StatePKjP10lua_TValueS6_, ptr %141, align 8, !tbaa !78
  %142 = load ptr, ptr %2, align 8, !tbaa !4
  %143 = getelementptr inbounds nuw %"struct.Luau::CodeGen::NativeContext", ptr %142, i32 0, i32 65
  store ptr @_ZN4Luau7CodeGen14executeSETLISTEP9lua_StatePKjP10lua_TValueS6_, ptr %143, align 8, !tbaa !79
  ret void
}